target datalayout = "e-m:e-p270:32:32-p271:32:32-p272:64:64-i64:64-i128:128-f80:128-n8:16:32:64-S128"
target triple = "x86_64-pc-linux-gnu"

%struct.git_hash_algo = type { ptr, i32, i64, i64, i64, ptr, ptr, ptr, ptr, ptr, ptr, ptr, ptr, ptr }
%struct.stat_data = type { %struct.cache_time, %struct.cache_time, i32, i32, i32, i32, i32 }
%struct.cache_time = type { i32, i32 }
%struct.object_id = type { [32 x i8], i32 }
%struct.hashmap = type { ptr, ptr, ptr, i32, i32, i32, i32, i8 }
%struct.repository = type { ptr, ptr, ptr, ptr, ptr, %struct.strmap, %struct.strmap, %struct.repo_path_cache, ptr, ptr, ptr, ptr, %struct.repo_settings, ptr, ptr, ptr, ptr, ptr, ptr, i32, i32, i32, ptr, ptr, i32, i32, i8 }
%struct.strmap = type { %struct.hashmap, ptr, i8 }
%struct.repo_path_cache = type { ptr, ptr, ptr, ptr, ptr, ptr, ptr }
%struct.repo_settings = type { i32, i32, i32, i32, i32, i32, i32, i32, i32, i32, i32, i32, ptr, i32, i32, i32, i32, i32, i32, i32, i64, i64, i64 }
%struct.untracked_cache_dir = type { ptr, ptr, %struct.stat_data, i32, i32, i32, i32, i8, %struct.object_id, [0 x i8] }
%struct.read_data = type { i32, ptr, ptr, ptr, ptr, ptr, ptr }

@the_repository = external global ptr, align 8
@hash_algos = external constant [3 x %struct.git_hash_algo], align 16

; Function Attrs: inlinehint nounwind uwtable
define internal i32 @hash_algo_by_ptr(ptr noundef %0) #3 {
  %2 = alloca i32, align 4
  %3 = alloca ptr, align 8
  %4 = alloca i64, align 8
  %5 = alloca ptr, align 8
  %6 = alloca i32, align 4
  store ptr %0, ptr %3, align 8, !tbaa !289
  call void @llvm.lifetime.start.p0(i64 8, ptr %4) #12
  store i64 0, ptr %4, align 8, !tbaa !19
  br label %7

7:                                                ; preds = %23, %1
  %8 = load i64, ptr %4, align 8, !tbaa !19
  %9 = icmp ult i64 %8, 3
  br i1 %9, label %10, label %26

10:                                               ; preds = %7
  call void @llvm.lifetime.start.p0(i64 8, ptr %5) #12
  %11 = load i64, ptr %4, align 8, !tbaa !19
  %12 = getelementptr inbounds nuw [3 x %struct.git_hash_algo], ptr @hash_algos, i64 0, i64 %11
  store ptr %12, ptr %5, align 8, !tbaa !289
  %13 = load ptr, ptr %3, align 8, !tbaa !289
  %14 = load ptr, ptr %5, align 8, !tbaa !289
  %15 = icmp eq ptr %13, %14
  br i1 %15, label %16, label %19

16:                                               ; preds = %10
  %17 = load i64, ptr %4, align 8, !tbaa !19
  %18 = trunc i64 %17 to i32
  store i32 %18, ptr %2, align 4
  store i32 1, ptr %6, align 4
  br label %20

19:                                               ; preds = %10
  store i32 0, ptr %6, align 4
  br label %20

20:                                               ; preds = %19, %16
  call void @llvm.lifetime.end.p0(i64 8, ptr %5) #12
  %21 = load i32, ptr %6, align 4
  switch i32 %21, label %27 [
    i32 0, label %22
  ]

22:                                               ; preds = %20
  br label %23

23:                                               ; preds = %22
  %24 = load i64, ptr %4, align 8, !tbaa !19
  %25 = add i64 %24, 1
  store i64 %25, ptr %4, align 8, !tbaa !19
  br label %7, !llvm.loop !290

26:                                               ; preds = %7
  store i32 0, ptr %2, align 4
  store i32 1, ptr %6, align 4
  br label %27

27:                                               ; preds = %26, %20
  call void @llvm.lifetime.end.p0(i64 8, ptr %4) #12
  %28 = load i32, ptr %2, align 4
  ret i32 %28
}

; Function Attrs: inlinehint nounwind uwtable
define internal void @oidread(ptr noundef %0, ptr noundef %1, ptr noundef %2) #3 {
  %4 = alloca ptr, align 8
  %5 = alloca ptr, align 8
  %6 = alloca ptr, align 8
  store ptr %0, ptr %4, align 8, !tbaa !149
  store ptr %1, ptr %5, align 8, !tbaa !13
  store ptr %2, ptr %6, align 8, !tbaa !289
  %7 = load ptr, ptr %4, align 8, !tbaa !149
  %8 = getelementptr inbounds nuw %struct.object_id, ptr %7, i32 0, i32 0
  %9 = getelementptr inbounds [32 x i8], ptr %8, i64 0, i64 0
  %10 = load ptr, ptr %5, align 8, !tbaa !13
  %11 = load ptr, ptr %6, align 8, !tbaa !289
  %12 = getelementptr inbounds nuw %struct.git_hash_algo, ptr %11, i32 0, i32 2
  %13 = load i64, ptr %12, align 8, !tbaa !220
  call void @llvm.memcpy.p0.p0.i64(ptr align 4 %9, ptr align 1 %10, i64 %13, i1 false)
  %14 = load ptr, ptr %6, align 8, !tbaa !289
  %15 = getelementptr inbounds nuw %struct.git_hash_algo, ptr %14, i32 0, i32 2
  %16 = load i64, ptr %15, align 8, !tbaa !220
  %17 = icmp ult i64 %16, 32
  br i1 %17, label %18, label %30

18:                                               ; preds = %3
  %19 = load ptr, ptr %4, align 8, !tbaa !149
  %20 = getelementptr inbounds nuw %struct.object_id, ptr %19, i32 0, i32 0
  %21 = getelementptr inbounds [32 x i8], ptr %20, i64 0, i64 0
  %22 = load ptr, ptr %6, align 8, !tbaa !289
  %23 = getelementptr inbounds nuw %struct.git_hash_algo, ptr %22, i32 0, i32 2
  %24 = load i64, ptr %23, align 8, !tbaa !220
  %25 = getelementptr inbounds nuw i8, ptr %21, i64 %24
  %26 = load ptr, ptr %6, align 8, !tbaa !289
  %27 = getelementptr inbounds nuw %struct.git_hash_algo, ptr %26, i32 0, i32 2
  %28 = load i64, ptr %27, align 8, !tbaa !220
  %29 = sub i64 32, %28
  call void @llvm.memset.p0.i64(ptr align 1 %25, i8 0, i64 %29, i1 false)
  br label %30

30:                                               ; preds = %18, %3
  %31 = load ptr, ptr %6, align 8, !tbaa !289
  %32 = call i32 @hash_algo_by_ptr(ptr noundef %31)
  %33 = load ptr, ptr %4, align 8, !tbaa !149
  %34 = getelementptr inbounds nuw %struct.object_id, ptr %33, i32 0, i32 1
  store i32 %32, ptr %34, align 4, !tbaa !285
  ret void
}

; Function Attrs: nounwind uwtable
define internal void @read_oid(i64 noundef %0, ptr noundef %1) #0 {
  %3 = alloca i64, align 8
  %4 = alloca ptr, align 8
  %5 = alloca ptr, align 8
  %6 = alloca ptr, align 8
  %7 = alloca i32, align 4
  store i64 %0, ptr %3, align 8, !tbaa !19
  store ptr %1, ptr %4, align 8, !tbaa !106
  call void @llvm.lifetime.start.p0(i64 8, ptr %5) #12
  %8 = load ptr, ptr %4, align 8, !tbaa !106
  store ptr %8, ptr %5, align 8, !tbaa !261
  call void @llvm.lifetime.start.p0(i64 8, ptr %6) #12
  %9 = load ptr, ptr %5, align 8, !tbaa !261
  %10 = getelementptr inbounds nuw %struct.read_data, ptr %9, i32 0, i32 1
  %11 = load ptr, ptr %10, align 8, !tbaa !260
  %12 = load i64, ptr %3, align 8, !tbaa !19
  %13 = getelementptr inbounds nuw ptr, ptr %11, i64 %12
  %14 = load ptr, ptr %13, align 8, !tbaa !71
  store ptr %14, ptr %6, align 8, !tbaa !71
  %15 = load ptr, ptr %5, align 8, !tbaa !261
  %16 = getelementptr inbounds nuw %struct.read_data, ptr %15, i32 0, i32 5
  %17 = load ptr, ptr %16, align 8, !tbaa !257
  %18 = load ptr, ptr @the_repository, align 8, !tbaa !140
  %19 = getelementptr inbounds nuw %struct.repository, ptr %18, i32 0, i32 17
  %20 = load ptr, ptr %19, align 8, !tbaa !141
  %21 = getelementptr inbounds nuw %struct.git_hash_algo, ptr %20, i32 0, i32 2
  %22 = load i64, ptr %21, align 8, !tbaa !220
  %23 = getelementptr inbounds nuw i8, ptr %17, i64 %22
  %24 = load ptr, ptr %5, align 8, !tbaa !261
  %25 = getelementptr inbounds nuw %struct.read_data, ptr %24, i32 0, i32 6
  %26 = load ptr, ptr %25, align 8, !tbaa !258
  %27 = icmp ugt ptr %23, %26
  br i1 %27, label %28, label %35

28:                                               ; preds = %2
  %29 = load ptr, ptr %5, align 8, !tbaa !261
  %30 = getelementptr inbounds nuw %struct.read_data, ptr %29, i32 0, i32 6
  %31 = load ptr, ptr %30, align 8, !tbaa !258
  %32 = getelementptr inbounds i8, ptr %31, i64 1
  %33 = load ptr, ptr %5, align 8, !tbaa !261
  %34 = getelementptr inbounds nuw %struct.read_data, ptr %33, i32 0, i32 5
  store ptr %32, ptr %34, align 8, !tbaa !257
  store i32 1, ptr %7, align 4
  br label %53

35:                                               ; preds = %2
  %36 = load ptr, ptr %6, align 8, !tbaa !71
  %37 = getelementptr inbounds nuw %struct.untracked_cache_dir, ptr %36, i32 0, i32 8
  %38 = load ptr, ptr %5, align 8, !tbaa !261
  %39 = getelementptr inbounds nuw %struct.read_data, ptr %38, i32 0, i32 5
  %40 = load ptr, ptr %39, align 8, !tbaa !257
  %41 = load ptr, ptr @the_repository, align 8, !tbaa !140
  %42 = getelementptr inbounds nuw %struct.repository, ptr %41, i32 0, i32 17
  %43 = load ptr, ptr %42, align 8, !tbaa !141
  call void @oidread(ptr noundef %37, ptr noundef %40, ptr noundef %43)
  %44 = load ptr, ptr @the_repository, align 8, !tbaa !140
  %45 = getelementptr inbounds nuw %struct.repository, ptr %44, i32 0, i32 17
  %46 = load ptr, ptr %45, align 8, !tbaa !141
  %47 = getelementptr inbounds nuw %struct.git_hash_algo, ptr %46, i32 0, i32 2
  %48 = load i64, ptr %47, align 8, !tbaa !220
  %49 = load ptr, ptr %5, align 8, !tbaa !261
  %50 = getelementptr inbounds nuw %struct.read_data, ptr %49, i32 0, i32 5
  %51 = load ptr, ptr %50, align 8, !tbaa !257
  %52 = getelementptr inbounds nuw i8, ptr %51, i64 %48
  store ptr %52, ptr %50, align 8, !tbaa !257
  store i32 0, ptr %7, align 4
  br label %53

53:                                               ; preds = %35, %28
  call void @llvm.lifetime.end.p0(i64 8, ptr %6) #12
  call void @llvm.lifetime.end.p0(i64 8, ptr %5) #12
  %54 = load i32, ptr %7, align 4
  switch i32 %54, label %56 [
    i32 0, label %55
    i32 1, label %55
  ]

55:                                               ; preds = %53, %53
  ret void

56:                                               ; preds = %53
  unreachable
}