; Function Attrs: nofree norecurse nosync nounwind memory(readwrite, inaccessiblemem: none) uwtable
define internal void @read_oid(i64 noundef %0, ptr noundef captures(none) %1) #21 {
  %3 = getelementptr inbounds nuw i8, ptr %1, i64 40
  %4 = load ptr, ptr %3, align 8, !tbaa !232
  %5 = load ptr, ptr @the_repository, align 8, !tbaa !132
  %6 = getelementptr inbounds nuw i8, ptr %5, i64 400
  %7 = load ptr, ptr %6, align 8, !tbaa !133
  %8 = getelementptr inbounds nuw i8, ptr %7, i64 16
  %9 = load i64, ptr %8, align 8, !tbaa !203
  %10 = getelementptr inbounds nuw i8, ptr %4, i64 %9
  %11 = getelementptr inbounds nuw i8, ptr %1, i64 48
  %12 = load ptr, ptr %11, align 8, !tbaa !233
  %13 = icmp ugt ptr %10, %12
  br i1 %13, label %14, label %16

14:                                               ; preds = %2
  %15 = getelementptr inbounds nuw i8, ptr %12, i64 1
  br label %40

16:                                               ; preds = %2
  %17 = getelementptr inbounds nuw i8, ptr %1, i64 8
  %18 = load ptr, ptr %17, align 8, !tbaa !235
  %19 = getelementptr inbounds nuw ptr, ptr %18, i64 %0
  %20 = load ptr, ptr %19, align 8, !tbaa !158
  %21 = getelementptr inbounds nuw i8, ptr %20, i64 72
  tail call void @llvm.memcpy.p0.p0.i64(ptr nonnull align 4 %21, ptr readonly align 1 %4, i64 %9, i1 false)
  %22 = load i64, ptr %8, align 8, !tbaa !203
  %23 = icmp ult i64 %22, 32
  br i1 %23, label %24, label %.preheader

24:                                               ; preds = %16
  %25 = getelementptr inbounds nuw i8, ptr %21, i64 %22
  %26 = sub nuw nsw i64 32, %22
  tail call void @llvm.memset.p0.i64(ptr nonnull align 1 %25, i8 0, i64 %26, i1 false)
  br label %.preheader

.preheader:                                       ; preds = %24, %16
  br label %27

27:                                               ; preds = %.preheader, %29
  %.0811.i.i = phi i64 [ %30, %29 ], [ 0, %.preheader ]
  %28 = getelementptr inbounds nuw [3 x %struct.git_hash_algo], ptr @hash_algos, i64 0, i64 %.0811.i.i
  %.not.i.i = icmp eq ptr %7, %28
  br i1 %.not.i.i, label %.split.loop.exit9.i.i, label %29

29:                                               ; preds = %27
  %30 = add nuw nsw i64 %.0811.i.i, 1
  %exitcond.not.i.i = icmp eq i64 %30, 3
  br i1 %exitcond.not.i.i, label %oidread.exit, label %27, !llvm.loop !160

.split.loop.exit9.i.i:                            ; preds = %27
  %31 = trunc nuw nsw i64 %.0811.i.i to i32
  br label %oidread.exit

oidread.exit:                                     ; preds = %29, %.split.loop.exit9.i.i
  %.2.i.i = phi i32 [ %31, %.split.loop.exit9.i.i ], [ 0, %29 ]
  %32 = getelementptr inbounds nuw i8, ptr %20, i64 104
  store i32 %.2.i.i, ptr %32, align 4, !tbaa !137
  %33 = load ptr, ptr @the_repository, align 8, !tbaa !132
  %34 = getelementptr inbounds nuw i8, ptr %33, i64 400
  %35 = load ptr, ptr %34, align 8, !tbaa !133
  %36 = getelementptr inbounds nuw i8, ptr %35, i64 16
  %37 = load i64, ptr %36, align 8, !tbaa !203
  %38 = load ptr, ptr %3, align 8, !tbaa !232
  %39 = getelementptr inbounds nuw i8, ptr %38, i64 %37
  br label %40

40:                                               ; preds = %oidread.exit, %14
  %storemerge = phi ptr [ %39, %oidread.exit ], [ %15, %14 ]
  store ptr %storemerge, ptr %3, align 8, !tbaa !232
  ret void
}